target datalayout = "e-m:e-p270:32:32-p271:32:32-p272:64:64-i64:64-i128:128-f80:128-n8:16:32:64-S128"
target triple = "x86_64-pc-linux-gnu"

%union.EX_STYPE = type { ptr }
%struct.Exnode_s = type { i64, i64, i8, %union.anon, %union.Exdata_u, i32 }
%union.anon = type { ptr }
%union.Exdata_u = type { %struct.anon.2 }
%struct.anon.2 = type { ptr, ptr, ptr, ptr }
%struct.Expr_s = type { ptr, ptr, [10 x ptr], ptr, ptr, ptr, ptr, ptr, ptr, %struct.agxbuf, %union.EX_STYPE, %struct.Exid_s, [512 x i8], ptr, i32, i32, i32, i64, i64, i32 }
%struct.agxbuf = type { %union.anon.10 }
%union.anon.10 = type { %struct.anon.11 }
%struct.anon.11 = type { ptr, i64, i64, [7 x i8], i8 }
%struct.Exid_s = type { %struct.dtlink_s_, i64, i64, i64, i64, ptr, ptr, [32 x i8] }
%struct.dtlink_s_ = type { ptr, %union.anon.12 }
%union.anon.12 = type { ptr }
%struct.Exdisc_s = type { i64, i64, ptr, ptr, ptr, ptr, ptr, ptr, ptr, ptr, ptr, ptr, ptr, ptr, ptr, ptr, ptr }
%struct.dt_s_ = type { ptr, ptr, %struct.Dtdata_t, ptr, i32, ptr, ptr, ptr }
%struct.Dtdata_t = type { i32, ptr, %union.anon.13, i32, i32, i32 }
%union.anon.13 = type { ptr }

@.str.20 = private unnamed_addr constant [5 x i8] c"%llx\00", align 1

; Function Attrs: nounwind uwtable
define internal i32 @evaldyn(ptr noundef %0, ptr noundef %1, ptr noundef %2, i32 noundef %3) #0 {
  %5 = alloca i32, align 4
  %6 = alloca ptr, align 8
  %7 = alloca ptr, align 8
  %8 = alloca ptr, align 8
  %9 = alloca i32, align 4
  %10 = alloca ptr, align 8
  %11 = alloca %union.EX_STYPE, align 8
  %12 = alloca [32 x i8], align 16
  %13 = alloca %union.EX_STYPE, align 8
  %14 = alloca ptr, align 8
  %15 = alloca %union.EX_STYPE, align 8
  %16 = alloca i32, align 4
  %17 = alloca i64, align 8
  %18 = alloca %union.EX_STYPE, align 8
  store ptr %0, ptr %6, align 8, !tbaa !3
  store ptr %1, ptr %7, align 8, !tbaa !8
  store ptr %2, ptr %8, align 8, !tbaa !10
  store i32 %3, ptr %9, align 4, !tbaa !38
  call void @llvm.lifetime.start.p0(i64 8, ptr %10) #15
  call void @llvm.lifetime.start.p0(i64 8, ptr %11) #15
  call void @llvm.lifetime.start.p0(i64 32, ptr %12) #15
  call void @llvm.lifetime.start.p0(i64 8, ptr %13) #15
  call void @llvm.lifetime.start.p0(i64 8, ptr %14) #15
  call void @llvm.lifetime.start.p0(i64 8, ptr %15) #15
  %19 = load ptr, ptr %6, align 8, !tbaa !3
  %20 = load ptr, ptr %7, align 8, !tbaa !8
  %21 = getelementptr inbounds nuw %struct.Exnode_s, ptr %20, i32 0, i32 4
  %22 = getelementptr inbounds nuw %struct.anon.2, ptr %21, i32 0, i32 2
  %23 = load ptr, ptr %22, align 8, !tbaa !11
  %24 = load ptr, ptr %8, align 8, !tbaa !10
  %25 = call ptr @eval(ptr noundef %19, ptr noundef %23, ptr noundef %24)
  %26 = getelementptr inbounds nuw %union.EX_STYPE, ptr %15, i32 0, i32 0
  store ptr %25, ptr %26, align 8
  call void @llvm.memcpy.p0.p0.i64(ptr align 8 %11, ptr align 8 %15, i64 8, i1 false), !tbaa.struct !34
  call void @llvm.lifetime.end.p0(i64 8, ptr %15) #15
  %27 = load ptr, ptr %7, align 8, !tbaa !8
  %28 = getelementptr inbounds nuw %struct.Exnode_s, ptr %27, i32 0, i32 4
  %29 = getelementptr inbounds nuw %struct.anon.2, ptr %28, i32 0, i32 0
  %30 = load ptr, ptr %29, align 8, !tbaa !11
  %31 = getelementptr inbounds nuw %struct.Exid_s, ptr %30, i32 0, i32 4
  %32 = load i64, ptr %31, align 8, !tbaa !80
  %33 = icmp eq i64 %32, 259
  br i1 %33, label %34, label %53

34:                                               ; preds = %4
  %35 = load ptr, ptr %7, align 8, !tbaa !8
  %36 = getelementptr inbounds nuw %struct.Exnode_s, ptr %35, i32 0, i32 4
  %37 = getelementptr inbounds nuw %struct.anon.2, ptr %36, i32 0, i32 0
  %38 = load ptr, ptr %37, align 8, !tbaa !11
  %39 = getelementptr inbounds nuw %struct.Exid_s, ptr %38, i32 0, i32 6
  %40 = load ptr, ptr %39, align 8, !tbaa !60
  %41 = getelementptr inbounds nuw %struct.dt_s_, ptr %40, i32 0, i32 0
  %42 = load ptr, ptr %41, align 8, !tbaa !61
  %43 = load ptr, ptr %7, align 8, !tbaa !8
  %44 = getelementptr inbounds nuw %struct.Exnode_s, ptr %43, i32 0, i32 4
  %45 = getelementptr inbounds nuw %struct.anon.2, ptr %44, i32 0, i32 0
  %46 = load ptr, ptr %45, align 8, !tbaa !11
  %47 = getelementptr inbounds nuw %struct.Exid_s, ptr %46, i32 0, i32 6
  %48 = load ptr, ptr %47, align 8, !tbaa !60
  %49 = call ptr %42(ptr noundef %48, ptr noundef %11, i32 noundef 512)
  store ptr %49, ptr %10, align 8, !tbaa !10
  %50 = icmp ne ptr %49, null
  br i1 %50, label %52, label %51

51:                                               ; preds = %34
  store i32 0, ptr %5, align 4
  store i32 1, ptr %16, align 4
  br label %130

52:                                               ; preds = %34
  br label %108

53:                                               ; preds = %4
  call void @llvm.lifetime.start.p0(i64 8, ptr %17) #15
  %54 = load ptr, ptr %7, align 8, !tbaa !8
  %55 = getelementptr inbounds nuw %struct.Exnode_s, ptr %54, i32 0, i32 4
  %56 = getelementptr inbounds nuw %struct.anon.2, ptr %55, i32 0, i32 2
  %57 = load ptr, ptr %56, align 8, !tbaa !11
  %58 = getelementptr inbounds nuw %struct.Exnode_s, ptr %57, i32 0, i32 0
  %59 = load i64, ptr %58, align 8, !tbaa !12
  store i64 %59, ptr %17, align 8, !tbaa !45
  %60 = load i64, ptr %17, align 8, !tbaa !45
  %61 = icmp ne i64 %60, 263
  br i1 %61, label %62, label %83

62:                                               ; preds = %53
  %63 = load i64, ptr %17, align 8, !tbaa !45
  %64 = icmp sgt i64 %63, 258
  br i1 %64, label %76, label %65

65:                                               ; preds = %62
  call void @llvm.lifetime.start.p0(i64 8, ptr %18) #15
  %66 = load ptr, ptr %6, align 8, !tbaa !3
  %67 = getelementptr inbounds nuw %struct.Expr_s, ptr %66, i32 0, i32 6
  %68 = load ptr, ptr %67, align 8, !tbaa !17
  %69 = getelementptr inbounds nuw %struct.Exdisc_s, ptr %68, i32 0, i32 9
  %70 = load ptr, ptr %69, align 8, !tbaa !83
  %71 = load i64, ptr %17, align 8, !tbaa !45
  %72 = getelementptr inbounds nuw %union.EX_STYPE, ptr %11, i32 0, i32 0
  %73 = load ptr, ptr %72, align 8
  %74 = call ptr %70(ptr %73, i64 noundef %71)
  %75 = getelementptr inbounds nuw %union.EX_STYPE, ptr %18, i32 0, i32 0
  store ptr %74, ptr %75, align 8
  call void @llvm.memcpy.p0.p0.i64(ptr align 8 %13, ptr align 8 %18, i64 8, i1 false), !tbaa.struct !34
  call void @llvm.lifetime.end.p0(i64 8, ptr %18) #15
  br label %78

76:                                               ; preds = %62
  %77 = load i64, ptr %11, align 8, !tbaa !11
  store i64 %77, ptr %13, align 8, !tbaa !11
  br label %78

78:                                               ; preds = %76, %65
  %79 = getelementptr inbounds [32 x i8], ptr %12, i64 0, i64 0
  %80 = load i64, ptr %13, align 8, !tbaa !11
  %81 = call i32 (ptr, i64, ptr, ...) @snprintf(ptr noundef %79, i64 noundef 32, ptr noundef @.str.20, i64 noundef %80) #15
  %82 = getelementptr inbounds [32 x i8], ptr %12, i64 0, i64 0
  store ptr %82, ptr %14, align 8, !tbaa !42
  br label %85

83:                                               ; preds = %53
  %84 = load ptr, ptr %11, align 8, !tbaa !11
  store ptr %84, ptr %14, align 8, !tbaa !42
  br label %85

85:                                               ; preds = %83, %78
  %86 = load ptr, ptr %7, align 8, !tbaa !8
  %87 = getelementptr inbounds nuw %struct.Exnode_s, ptr %86, i32 0, i32 4
  %88 = getelementptr inbounds nuw %struct.anon.2, ptr %87, i32 0, i32 0
  %89 = load ptr, ptr %88, align 8, !tbaa !11
  %90 = getelementptr inbounds nuw %struct.Exid_s, ptr %89, i32 0, i32 6
  %91 = load ptr, ptr %90, align 8, !tbaa !60
  %92 = getelementptr inbounds nuw %struct.dt_s_, ptr %91, i32 0, i32 0
  %93 = load ptr, ptr %92, align 8, !tbaa !61
  %94 = load ptr, ptr %7, align 8, !tbaa !8
  %95 = getelementptr inbounds nuw %struct.Exnode_s, ptr %94, i32 0, i32 4
  %96 = getelementptr inbounds nuw %struct.anon.2, ptr %95, i32 0, i32 0
  %97 = load ptr, ptr %96, align 8, !tbaa !11
  %98 = getelementptr inbounds nuw %struct.Exid_s, ptr %97, i32 0, i32 6
  %99 = load ptr, ptr %98, align 8, !tbaa !60
  %100 = load ptr, ptr %14, align 8, !tbaa !42
  %101 = call ptr %93(ptr noundef %99, ptr noundef %100, i32 noundef 512)
  store ptr %101, ptr %10, align 8, !tbaa !10
  %102 = icmp ne ptr %101, null
  br i1 %102, label %104, label %103

103:                                              ; preds = %85
  store i32 0, ptr %5, align 4
  store i32 1, ptr %16, align 4
  br label %105

104:                                              ; preds = %85
  store i32 0, ptr %16, align 4
  br label %105

105:                                              ; preds = %104, %103
  call void @llvm.lifetime.end.p0(i64 8, ptr %17) #15
  %106 = load i32, ptr %16, align 4
  switch i32 %106, label %130 [
    i32 0, label %107
  ]

107:                                              ; preds = %105
  br label %108

108:                                              ; preds = %107, %52
  %109 = load i32, ptr %9, align 4, !tbaa !38
  %110 = icmp ne i32 %109, 0
  br i1 %110, label %111, label %129

111:                                              ; preds = %108
  %112 = load ptr, ptr %7, align 8, !tbaa !8
  %113 = getelementptr inbounds nuw %struct.Exnode_s, ptr %112, i32 0, i32 4
  %114 = getelementptr inbounds nuw %struct.anon.2, ptr %113, i32 0, i32 0
  %115 = load ptr, ptr %114, align 8, !tbaa !11
  %116 = getelementptr inbounds nuw %struct.Exid_s, ptr %115, i32 0, i32 6
  %117 = load ptr, ptr %116, align 8, !tbaa !60
  %118 = getelementptr inbounds nuw %struct.dt_s_, ptr %117, i32 0, i32 0
  %119 = load ptr, ptr %118, align 8, !tbaa !61
  %120 = load ptr, ptr %7, align 8, !tbaa !8
  %121 = getelementptr inbounds nuw %struct.Exnode_s, ptr %120, i32 0, i32 4
  %122 = getelementptr inbounds nuw %struct.anon.2, ptr %121, i32 0, i32 0
  %123 = load ptr, ptr %122, align 8, !tbaa !11
  %124 = getelementptr inbounds nuw %struct.Exid_s, ptr %123, i32 0, i32 6
  %125 = load ptr, ptr %124, align 8, !tbaa !60
  %126 = load ptr, ptr %10, align 8, !tbaa !10
  %127 = call ptr %119(ptr noundef %125, ptr noundef %126, i32 noundef 2)
  %128 = load ptr, ptr %10, align 8, !tbaa !10
  call void @free(ptr noundef %128) #15
  br label %129

129:                                              ; preds = %111, %108
  store i32 1, ptr %5, align 4
  store i32 1, ptr %16, align 4
  br label %130

130:                                              ; preds = %129, %105, %51
  call void @llvm.lifetime.end.p0(i64 8, ptr %14) #15
  call void @llvm.lifetime.end.p0(i64 8, ptr %13) #15
  call void @llvm.lifetime.end.p0(i64 32, ptr %12) #15
  call void @llvm.lifetime.end.p0(i64 8, ptr %11) #15
  call void @llvm.lifetime.end.p0(i64 8, ptr %10) #15
  %131 = load i32, ptr %5, align 4
  ret i32 %131
}