; Function Attrs: nounwind uwtable
define internal fastcc range(i32 0, 2) i32 @evaldyn(ptr noundef %0, ptr noundef nonnull readonly captures(none) %1, ptr noundef %2, i32 noundef range(i32 0, 2) %3) unnamed_addr #0 {
  %5 = alloca %union.EX_STYPE, align 8
  %6 = alloca [32 x i8], align 16
  call void @llvm.lifetime.start.p0(i64 8, ptr nonnull %5) #25
  call void @llvm.lifetime.start.p0(i64 32, ptr nonnull %6) #25
  %7 = getelementptr inbounds nuw i8, ptr %1, i64 32
  %8 = getelementptr inbounds nuw i8, ptr %1, i64 48
  %9 = load ptr, ptr %8, align 8, !tbaa !3
  %10 = tail call fastcc ptr @eval(ptr noundef %0, ptr noundef %9, ptr noundef %2)
  store ptr %10, ptr %5, align 8, !tbaa !3
  %11 = load ptr, ptr %7, align 8, !tbaa !3
  %12 = getelementptr inbounds nuw i8, ptr %11, i64 40
  %13 = load i64, ptr %12, align 8, !tbaa !75
  %14 = icmp eq i64 %13, 259
  br i1 %14, label %15, label %20

15:                                               ; preds = %4
  %16 = getelementptr inbounds nuw i8, ptr %11, i64 56
  %17 = load ptr, ptr %16, align 8, !tbaa !53
  %18 = load ptr, ptr %17, align 8, !tbaa !54
  %19 = call ptr %18(ptr noundef nonnull %17, ptr noundef nonnull %5, i32 noundef 512) #25
  %.not28 = icmp eq ptr %19, null
  br i1 %.not28, label %46, label %39

20:                                               ; preds = %4
  %21 = load ptr, ptr %8, align 8, !tbaa !3
  %22 = load i64, ptr %21, align 8, !tbaa !6
  %.not = icmp eq i64 %22, 263
  br i1 %.not, label %33, label %23

23:                                               ; preds = %20
  %24 = icmp sgt i64 %22, 258
  br i1 %24, label %31, label %25

25:                                               ; preds = %23
  %26 = getelementptr inbounds nuw i8, ptr %0, i64 120
  %27 = load ptr, ptr %26, align 8, !tbaa !11
  %28 = getelementptr inbounds nuw i8, ptr %27, i64 72
  %29 = load ptr, ptr %28, align 8, !tbaa !76
  %30 = tail call ptr %29(ptr %10, i64 noundef %22) #25
  br label %31

31:                                               ; preds = %23, %25
  %.sroa.05.0.in = phi ptr [ %30, %25 ], [ %10, %23 ]
  %.sroa.05.0 = ptrtoint ptr %.sroa.05.0.in to i64
  %32 = call i32 (ptr, i64, ptr, ...) @snprintf(ptr noundef nonnull dereferenceable(1) %6, i64 noundef 32, ptr noundef nonnull @.str.20, i64 noundef %.sroa.05.0) #25
  %.pre = load ptr, ptr %7, align 8, !tbaa !3
  br label %33

33:                                               ; preds = %20, %31
  %34 = phi ptr [ %.pre, %31 ], [ %11, %20 ]
  %.024 = phi ptr [ %6, %31 ], [ %10, %20 ]
  %35 = getelementptr inbounds nuw i8, ptr %34, i64 56
  %36 = load ptr, ptr %35, align 8, !tbaa !53
  %37 = load ptr, ptr %36, align 8, !tbaa !54
  %38 = call ptr %37(ptr noundef nonnull %36, ptr noundef %.024, i32 noundef 512) #25
  %.not27.not = icmp eq ptr %38, null
  br i1 %.not27.not, label %46, label %39

39:                                               ; preds = %33, %15
  %.022 = phi ptr [ %19, %15 ], [ %38, %33 ]
  %.not29 = icmp eq i32 %3, 0
  br i1 %.not29, label %46, label %40

40:                                               ; preds = %39
  %41 = load ptr, ptr %7, align 8, !tbaa !3
  %42 = getelementptr inbounds nuw i8, ptr %41, i64 56
  %43 = load ptr, ptr %42, align 8, !tbaa !53
  %44 = load ptr, ptr %43, align 8, !tbaa !54
  %45 = call ptr %44(ptr noundef nonnull %43, ptr noundef nonnull %.022, i32 noundef 2) #25
  call void @free(ptr noundef nonnull %.022) #25
  br label %46

46:                                               ; preds = %39, %40, %15, %33
  %.0 = phi i32 [ 0, %33 ], [ 0, %15 ], [ 1, %40 ], [ 1, %39 ]
  call void @llvm.lifetime.end.p0(i64 32, ptr nonnull %6) #25
  call void @llvm.lifetime.end.p0(i64 8, ptr nonnull %5) #25
  ret i32 %.0
}